target datalayout = "e-m:e-p270:32:32-p271:32:32-p272:64:64-i64:64-i128:128-f80:128-n8:16:32:64-S128"
target triple = "x86_64-pc-linux-gnu"

%struct.tuplehash_hash = type { i64, i32, i32, i32, ptr, ptr, ptr }
%struct.TupleHashEntryData = type { ptr, ptr, i32, i32 }

; Function Attrs: inlinehint nounwind uwtable
define internal i32 @tuplehash_next(ptr noundef %0, i32 noundef %1, i32 noundef %2) #3 {
  %4 = alloca ptr, align 8
  %5 = alloca i32, align 4
  %6 = alloca i32, align 4
  store ptr %0, ptr %4, align 8
  store i32 %1, ptr %5, align 4
  store i32 %2, ptr %6, align 4
  %7 = load i32, ptr %5, align 4
  %8 = add i32 %7, 1
  %9 = load ptr, ptr %4, align 8
  %10 = getelementptr inbounds nuw %struct.tuplehash_hash, ptr %9, i32 0, i32 2
  %11 = load i32, ptr %10, align 4
  %12 = and i32 %8, %11
  store i32 %12, ptr %5, align 4
  %13 = load i32, ptr %5, align 4
  ret i32 %13
}

; Function Attrs: inlinehint nounwind uwtable
define internal i32 @tuplehash_initial_bucket(ptr noundef %0, i32 noundef %1) #3 {
  %3 = alloca ptr, align 8
  %4 = alloca i32, align 4
  store ptr %0, ptr %3, align 8
  store i32 %1, ptr %4, align 4
  %5 = load i32, ptr %4, align 4
  %6 = load ptr, ptr %3, align 8
  %7 = getelementptr inbounds nuw %struct.tuplehash_hash, ptr %6, i32 0, i32 2
  %8 = load i32, ptr %7, align 4
  %9 = and i32 %5, %8
  ret i32 %9
}

; Function Attrs: inlinehint nounwind uwtable
define internal i32 @tuplehash_entry_hash(ptr noundef %0, ptr noundef %1) #3 {
  %3 = alloca ptr, align 8
  %4 = alloca ptr, align 8
  store ptr %0, ptr %3, align 8
  store ptr %1, ptr %4, align 8
  %5 = load ptr, ptr %4, align 8
  %6 = getelementptr inbounds nuw %struct.TupleHashEntryData, ptr %5, i32 0, i32 3
  %7 = load i32, ptr %6, align 4
  ret i32 %7
}

; Function Attrs: nounwind uwtable
define dso_local void @tuplehash_delete_item(ptr noundef %0, ptr noundef %1) #0 {
  %3 = alloca ptr, align 8
  %4 = alloca ptr, align 8
  %5 = alloca ptr, align 8
  %6 = alloca i32, align 4
  %7 = alloca i32, align 4
  %8 = alloca i32, align 4
  %9 = alloca ptr, align 8
  %10 = alloca i32, align 4
  %11 = alloca i32, align 4
  %12 = alloca i32, align 4
  store ptr %0, ptr %3, align 8
  store ptr %1, ptr %4, align 8
  call void @llvm.lifetime.start.p0(i64 8, ptr %5) #9
  %13 = load ptr, ptr %4, align 8
  store ptr %13, ptr %5, align 8
  call void @llvm.lifetime.start.p0(i64 4, ptr %6) #9
  %14 = load ptr, ptr %3, align 8
  %15 = load ptr, ptr %4, align 8
  %16 = call i32 @tuplehash_entry_hash(ptr noundef %14, ptr noundef %15)
  store i32 %16, ptr %6, align 4
  call void @llvm.lifetime.start.p0(i64 4, ptr %7) #9
  %17 = load ptr, ptr %3, align 8
  %18 = load i32, ptr %6, align 4
  %19 = call i32 @tuplehash_initial_bucket(ptr noundef %17, i32 noundef %18)
  store i32 %19, ptr %7, align 4
  call void @llvm.lifetime.start.p0(i64 4, ptr %8) #9
  %20 = load ptr, ptr %4, align 8
  %21 = load ptr, ptr %3, align 8
  %22 = getelementptr inbounds nuw %struct.tuplehash_hash, ptr %21, i32 0, i32 4
  %23 = load ptr, ptr %22, align 8
  %24 = getelementptr inbounds %struct.TupleHashEntryData, ptr %23, i64 0
  %25 = ptrtoint ptr %20 to i64
  %26 = ptrtoint ptr %24 to i64
  %27 = sub i64 %25, %26
  %28 = sdiv exact i64 %27, 24
  %29 = trunc i64 %28 to i32
  store i32 %29, ptr %8, align 4
  %30 = load ptr, ptr %3, align 8
  %31 = getelementptr inbounds nuw %struct.tuplehash_hash, ptr %30, i32 0, i32 1
  %32 = load i32, ptr %31, align 8
  %33 = add i32 %32, -1
  store i32 %33, ptr %31, align 8
  br label %34

34:                                               ; preds = %72, %2
  br label %35

35:                                               ; preds = %34
  call void @llvm.lifetime.start.p0(i64 8, ptr %9) #9
  call void @llvm.lifetime.start.p0(i64 4, ptr %10) #9
  call void @llvm.lifetime.start.p0(i64 4, ptr %11) #9
  %36 = load ptr, ptr %3, align 8
  %37 = load i32, ptr %8, align 4
  %38 = load i32, ptr %7, align 4
  %39 = call i32 @tuplehash_next(ptr noundef %36, i32 noundef %37, i32 noundef %38)
  store i32 %39, ptr %8, align 4
  %40 = load ptr, ptr %3, align 8
  %41 = getelementptr inbounds nuw %struct.tuplehash_hash, ptr %40, i32 0, i32 4
  %42 = load ptr, ptr %41, align 8
  %43 = load i32, ptr %8, align 4
  %44 = zext i32 %43 to i64
  %45 = getelementptr inbounds nuw %struct.TupleHashEntryData, ptr %42, i64 %44
  store ptr %45, ptr %9, align 8
  %46 = load ptr, ptr %9, align 8
  %47 = getelementptr inbounds nuw %struct.TupleHashEntryData, ptr %46, i32 0, i32 2
  %48 = load i32, ptr %47, align 8
  %49 = icmp ne i32 %48, 1
  br i1 %49, label %50, label %53

50:                                               ; preds = %35
  %51 = load ptr, ptr %5, align 8
  %52 = getelementptr inbounds nuw %struct.TupleHashEntryData, ptr %51, i32 0, i32 2
  store i32 0, ptr %52, align 8
  store i32 3, ptr %12, align 4
  br label %70

53:                                               ; preds = %35
  %54 = load ptr, ptr %3, align 8
  %55 = load ptr, ptr %9, align 8
  %56 = call i32 @tuplehash_entry_hash(ptr noundef %54, ptr noundef %55)
  store i32 %56, ptr %10, align 4
  %57 = load ptr, ptr %3, align 8
  %58 = load i32, ptr %10, align 4
  %59 = call i32 @tuplehash_initial_bucket(ptr noundef %57, i32 noundef %58)
  store i32 %59, ptr %11, align 4
  %60 = load i32, ptr %11, align 4
  %61 = load i32, ptr %8, align 4
  %62 = icmp eq i32 %60, %61
  br i1 %62, label %63, label %66

63:                                               ; preds = %53
  %64 = load ptr, ptr %5, align 8
  %65 = getelementptr inbounds nuw %struct.TupleHashEntryData, ptr %64, i32 0, i32 2
  store i32 0, ptr %65, align 8
  store i32 3, ptr %12, align 4
  br label %70

66:                                               ; preds = %53
  %67 = load ptr, ptr %5, align 8
  %68 = load ptr, ptr %9, align 8
  call void @llvm.memcpy.p0.p0.i64(ptr align 8 %67, ptr align 8 %68, i64 24, i1 false)
  %69 = load ptr, ptr %9, align 8
  store ptr %69, ptr %5, align 8
  store i32 0, ptr %12, align 4
  br label %70

70:                                               ; preds = %66, %63, %50
  call void @llvm.lifetime.end.p0(i64 4, ptr %11) #9
  call void @llvm.lifetime.end.p0(i64 4, ptr %10) #9
  call void @llvm.lifetime.end.p0(i64 8, ptr %9) #9
  %71 = load i32, ptr %12, align 4
  switch i32 %71, label %74 [
    i32 0, label %72
    i32 3, label %73
  ]

72:                                               ; preds = %70
  br label %34

73:                                               ; preds = %70
  call void @llvm.lifetime.end.p0(i64 4, ptr %8) #9
  call void @llvm.lifetime.end.p0(i64 4, ptr %7) #9
  call void @llvm.lifetime.end.p0(i64 4, ptr %6) #9
  call void @llvm.lifetime.end.p0(i64 8, ptr %5) #9
  ret void

74:                                               ; preds = %70
  unreachable
}