; Function Attrs: nofree norecurse nosync nounwind memory(readwrite, inaccessiblemem: none) uwtable
define dso_local void @tuplehash_delete_item(ptr noundef captures(none) %0, ptr noundef %1) local_unnamed_addr #7 {
  %3 = getelementptr i8, ptr %0, i64 12
  %4 = getelementptr inbounds nuw i8, ptr %0, i64 24
  %5 = load ptr, ptr %4, align 8
  %6 = ptrtoint ptr %1 to i64
  %7 = ptrtoint ptr %5 to i64
  %8 = sub i64 %6, %7
  %9 = sdiv exact i64 %8, 24
  %10 = trunc i64 %9 to i32
  %11 = getelementptr inbounds nuw i8, ptr %0, i64 8
  %12 = load i32, ptr %11, align 8
  %13 = add i32 %12, -1
  store i32 %13, ptr %11, align 8
  %.val3035 = load i32, ptr %3, align 4
  %14 = add i32 %10, 1
  %15 = and i32 %.val3035, %14
  %16 = zext i32 %15 to i64
  %17 = getelementptr inbounds nuw %struct.TupleHashEntryData, ptr %5, i64 %16
  %18 = getelementptr inbounds nuw i8, ptr %17, i64 16
  %19 = load i32, ptr %18, align 8
  %.not36 = icmp eq i32 %19, 1
  br i1 %.not36, label %.lr.ph, label %._crit_edge

.lr.ph:                                           ; preds = %2, %25
  %20 = phi ptr [ %30, %25 ], [ %17, %2 ]
  %21 = phi i32 [ %27, %25 ], [ %15, %2 ]
  %.val3038 = phi i32 [ %.val30, %25 ], [ %.val3035, %2 ]
  %.02537 = phi ptr [ %20, %25 ], [ %1, %2 ]
  %22 = getelementptr i8, ptr %20, i64 20
  %.val = load i32, ptr %22, align 4
  %23 = and i32 %.val, %.val3038
  %24 = icmp eq i32 %23, %21
  br i1 %24, label %._crit_edge, label %25

25:                                               ; preds = %.lr.ph
  tail call void @llvm.memcpy.p0.p0.i64(ptr noundef nonnull align 8 dereferenceable(24) %.02537, ptr noundef nonnull align 8 dereferenceable(24) %20, i64 24, i1 false)
  %.val30 = load i32, ptr %3, align 4
  %26 = add i32 %21, 1
  %27 = and i32 %.val30, %26
  %28 = load ptr, ptr %4, align 8
  %29 = zext i32 %27 to i64
  %30 = getelementptr inbounds nuw %struct.TupleHashEntryData, ptr %28, i64 %29
  %31 = getelementptr inbounds nuw i8, ptr %30, i64 16
  %32 = load i32, ptr %31, align 8
  %.not = icmp eq i32 %32, 1
  br i1 %.not, label %.lr.ph, label %._crit_edge

._crit_edge:                                      ; preds = %.lr.ph, %25, %2
  %.025.lcssa.sink = phi ptr [ %1, %2 ], [ %20, %25 ], [ %.02537, %.lr.ph ]
  %33 = getelementptr inbounds nuw i8, ptr %.025.lcssa.sink, i64 16
  store i32 0, ptr %33, align 8
  ret void
}